; Function Attrs: mustprogress uwtable
define hidden void @_ZNK4cvc58internal7printer3ast10AstPrinter19toStreamCmdGetProofERSoNS_5modes14ProofComponentE(ptr nonnull readnone align 8 captures(none) %0, ptr noundef nonnull align 8 dereferenceable(8) %1, i32 noundef %2) unnamed_addr #3 align 2 {
  %4 = tail call noundef nonnull align 8 dereferenceable(8) ptr @_ZSt16__ostream_insertIcSt11char_traitsIcEERSt13basic_ostreamIT_T0_ES6_PKS3_l(ptr noundef nonnull align 8 dereferenceable(8) %1, ptr noundef nonnull @.str.40, i64 noundef 9)
  %5 = tail call noundef nonnull align 8 dereferenceable(8) ptr @_ZN4cvc55modeslsERSoNS0_14ProofComponentE(ptr noundef nonnull align 8 dereferenceable(8) %1, i32 noundef %2)
  %6 = tail call noundef nonnull align 8 dereferenceable(8) ptr @_ZSt16__ostream_insertIcSt11char_traitsIcEERSt13basic_ostreamIT_T0_ES6_PKS3_l(ptr noundef nonnull align 8 dereferenceable(8) %5, ptr noundef nonnull @.str.5, i64 noundef 1)
  %7 = load ptr, ptr %5, align 8, !tbaa !3
  %8 = getelementptr i8, ptr %7, i64 -24
  %9 = load i64, ptr %8, align 8
  %10 = getelementptr inbounds i8, ptr %5, i64 %9
  %11 = getelementptr inbounds nuw i8, ptr %10, i64 240
  %12 = load ptr, ptr %11, align 8, !tbaa !69
  %.not.i.i.i = icmp eq ptr %12, null
  br i1 %.not.i.i.i, label %13, label %_ZSt13__check_facetISt5ctypeIcEERKT_PS3_.exit.i.i

13:                                               ; preds = %3
  tail call void @_ZSt16__throw_bad_castv() #24
  unreachable

_ZSt13__check_facetISt5ctypeIcEERKT_PS3_.exit.i.i: ; preds = %3
  %14 = getelementptr inbounds nuw i8, ptr %12, i64 56
  %15 = load i8, ptr %14, align 8, !tbaa !77
  %.not.i1.i.i = icmp eq i8 %15, 0
  br i1 %.not.i1.i.i, label %19, label %16

16:                                               ; preds = %_ZSt13__check_facetISt5ctypeIcEERKT_PS3_.exit.i.i
  %17 = getelementptr inbounds nuw i8, ptr %12, i64 67
  %18 = load i8, ptr %17, align 1, !tbaa !14
  br label %_ZSt4endlIcSt11char_traitsIcEERSt13basic_ostreamIT_T0_ES6_.exit

19:                                               ; preds = %_ZSt13__check_facetISt5ctypeIcEERKT_PS3_.exit.i.i
  tail call void @_ZNKSt5ctypeIcE13_M_widen_initEv(ptr noundef nonnull align 8 dereferenceable(570) %12)
  %20 = load ptr, ptr %12, align 8, !tbaa !3
  %21 = getelementptr inbounds nuw i8, ptr %20, i64 48
  %22 = load ptr, ptr %21, align 8
  %23 = tail call noundef signext i8 %22(ptr noundef nonnull align 8 dereferenceable(570) %12, i8 noundef signext 10)
  br label %_ZSt4endlIcSt11char_traitsIcEERSt13basic_ostreamIT_T0_ES6_.exit

_ZSt4endlIcSt11char_traitsIcEERSt13basic_ostreamIT_T0_ES6_.exit: ; preds = %16, %19
  %.0.i.i.i = phi i8 [ %18, %16 ], [ %23, %19 ]
  %24 = tail call noundef nonnull align 8 dereferenceable(8) ptr @_ZNSo3putEc(ptr noundef nonnull align 8 dereferenceable(8) %5, i8 noundef signext %.0.i.i.i)
  %25 = tail call noundef nonnull align 8 dereferenceable(8) ptr @_ZNSo5flushEv(ptr noundef nonnull align 8 dereferenceable(8) %24)
  ret void
}